; Function Attrs: nofree norecurse nosync nounwind memory(argmem: read) uwtable
define internal i32 @lv_text_utf8_get_byte_id(ptr nocapture noundef readonly %0, i32 noundef %1) #5 {
  %.not16 = icmp eq i32 %1, 0
  br i1 %.not16, label %.critedge, label %.lr.ph

.lr.ph:                                           ; preds = %2, %lv_text_utf8_size.exit
  %.013 = phi i32 [ %20, %lv_text_utf8_size.exit ], [ 0, %2 ]
  %.01012 = phi i32 [ %19, %lv_text_utf8_size.exit ], [ 0, %2 ]
  %3 = zext i32 %.01012 to i64
  %4 = getelementptr inbounds nuw i8, ptr %0, i64 %3
  %5 = load i8, ptr %4, align 1, !tbaa !3
  %.not = icmp eq i8 %5, 0
  br i1 %.not, label %.critedge, label %6

6:                                                ; preds = %.lr.ph
  %7 = zext i8 %5 to i32
  %8 = icmp sgt i8 %5, -1
  br i1 %8, label %lv_text_utf8_size.exit, label %9

9:                                                ; preds = %6
  %10 = and i32 %7, 224
  %11 = icmp eq i32 %10, 192
  br i1 %11, label %lv_text_utf8_size.exit, label %12

12:                                               ; preds = %9
  %13 = and i32 %7, 240
  %14 = icmp eq i32 %13, 224
  br i1 %14, label %lv_text_utf8_size.exit, label %15

15:                                               ; preds = %12
  %16 = and i32 %7, 248
  %17 = icmp eq i32 %16, 240
  %..i = select i1 %17, i8 4, i8 0
  br label %lv_text_utf8_size.exit

lv_text_utf8_size.exit:                           ; preds = %6, %9, %12, %15
  %.0.i = phi i8 [ 1, %6 ], [ 2, %9 ], [ 3, %12 ], [ %..i, %15 ]
  %narrow = tail call i8 @llvm.umax.i8(i8 %.0.i, i8 1)
  %18 = zext nneg i8 %narrow to i32
  %19 = add i32 %.01012, %18
  %20 = add nuw i32 %.013, 1
  %exitcond.not = icmp eq i32 %20, %1
  br i1 %exitcond.not, label %.critedge, label %.lr.ph, !llvm.loop !11

.critedge:                                        ; preds = %.lr.ph, %lv_text_utf8_size.exit, %2
  %.010.lcssa = phi i32 [ 0, %2 ], [ %19, %lv_text_utf8_size.exit ], [ %.01012, %.lr.ph ]
  ret i32 %.010.lcssa
}